; Function Attrs: mustprogress uwtable
define void @_ZNK10ColorValue16fillToXMLElementER11QDomElement(ptr noundef nonnull align 8 dereferenceable(24) %0, ptr noundef nonnull align 8 dereferenceable(8) %1) unnamed_addr #1 align 2 personality ptr @__gxx_personality_v0 {
  %3 = alloca %class.QString, align 8
  %4 = alloca %class.QString, align 8
  %5 = alloca %class.QString, align 8
  %6 = alloca %class.QString, align 8
  %7 = alloca %class.QString, align 8
  %8 = alloca %class.QString, align 8
  %9 = alloca %class.QString, align 8
  %10 = alloca %class.QString, align 8
  %11 = tail call noundef ptr @_ZN7QString16fromAscii_helperEPKci(ptr noundef nonnull @.str.4, i32 noundef 1)
  store ptr %11, ptr %3, align 8
  %12 = getelementptr inbounds i8, ptr %0, i64 8
  %13 = tail call noundef i32 @_ZNK6QColor3redEv(ptr noundef nonnull align 4 dereferenceable(14) %12) #14
  invoke void @_ZN7QString6numberEii(ptr dead_on_unwind nonnull writable sret(%class.QString) align 8 %4, i32 noundef %13, i32 noundef 10)
          to label %14 unwind label %60

14:                                               ; preds = %2
  invoke void @_ZN11QDomElement12setAttributeERK7QStringS2_(ptr noundef nonnull align 8 dereferenceable(8) %1, ptr noundef nonnull align 8 dereferenceable(8) %3, ptr noundef nonnull align 8 dereferenceable(8) %4)
          to label %15 unwind label %62

15:                                               ; preds = %14
  %16 = load ptr, ptr %4, align 8
  %17 = load atomic i32, ptr %16 monotonic, align 4
  switch i32 %17, label %_ZN9QtPrivate8RefCount5derefEv.exit.i [
    i32 0, label %_ZN9QtPrivate8RefCount5derefEv.exit.thread2.i
    i32 -1, label %_ZN7QStringD2Ev.exit
  ]

_ZN9QtPrivate8RefCount5derefEv.exit.i:            ; preds = %15
  %18 = atomicrmw sub ptr %16, i32 1 seq_cst, align 4
  %.not.i = icmp eq i32 %18, 1
  br i1 %.not.i, label %_ZN9QtPrivate8RefCount5derefEv.exit._ZN9QtPrivate8RefCount5derefEv.exit.thread2_crit_edge.i, label %_ZN7QStringD2Ev.exit

_ZN9QtPrivate8RefCount5derefEv.exit._ZN9QtPrivate8RefCount5derefEv.exit.thread2_crit_edge.i: ; preds = %_ZN9QtPrivate8RefCount5derefEv.exit.i
  %.pre.i = load ptr, ptr %4, align 8
  br label %_ZN9QtPrivate8RefCount5derefEv.exit.thread2.i

_ZN9QtPrivate8RefCount5derefEv.exit.thread2.i:    ; preds = %_ZN9QtPrivate8RefCount5derefEv.exit._ZN9QtPrivate8RefCount5derefEv.exit.thread2_crit_edge.i, %15
  %19 = phi ptr [ %.pre.i, %_ZN9QtPrivate8RefCount5derefEv.exit._ZN9QtPrivate8RefCount5derefEv.exit.thread2_crit_edge.i ], [ %16, %15 ]
  call void @_ZN10QArrayData10deallocateEPS_mm(ptr noundef %19, i64 noundef 2, i64 noundef 8) #14
  br label %_ZN7QStringD2Ev.exit

_ZN7QStringD2Ev.exit:                             ; preds = %15, %_ZN9QtPrivate8RefCount5derefEv.exit.i, %_ZN9QtPrivate8RefCount5derefEv.exit.thread2.i
  %20 = load ptr, ptr %3, align 8
  %21 = load atomic i32, ptr %20 monotonic, align 4
  switch i32 %21, label %_ZN9QtPrivate8RefCount5derefEv.exit.i20 [
    i32 0, label %_ZN9QtPrivate8RefCount5derefEv.exit.thread2.i19
    i32 -1, label %_ZN7QStringD2Ev.exit24
  ]

_ZN9QtPrivate8RefCount5derefEv.exit.i20:          ; preds = %_ZN7QStringD2Ev.exit
  %22 = atomicrmw sub ptr %20, i32 1 seq_cst, align 4
  %.not.i21 = icmp eq i32 %22, 1
  br i1 %.not.i21, label %_ZN9QtPrivate8RefCount5derefEv.exit._ZN9QtPrivate8RefCount5derefEv.exit.thread2_crit_edge.i22, label %_ZN7QStringD2Ev.exit24

_ZN9QtPrivate8RefCount5derefEv.exit._ZN9QtPrivate8RefCount5derefEv.exit.thread2_crit_edge.i22: ; preds = %_ZN9QtPrivate8RefCount5derefEv.exit.i20
  %.pre.i23 = load ptr, ptr %3, align 8
  br label %_ZN9QtPrivate8RefCount5derefEv.exit.thread2.i19

_ZN9QtPrivate8RefCount5derefEv.exit.thread2.i19:  ; preds = %_ZN9QtPrivate8RefCount5derefEv.exit._ZN9QtPrivate8RefCount5derefEv.exit.thread2_crit_edge.i22, %_ZN7QStringD2Ev.exit
  %23 = phi ptr [ %.pre.i23, %_ZN9QtPrivate8RefCount5derefEv.exit._ZN9QtPrivate8RefCount5derefEv.exit.thread2_crit_edge.i22 ], [ %20, %_ZN7QStringD2Ev.exit ]
  call void @_ZN10QArrayData10deallocateEPS_mm(ptr noundef %23, i64 noundef 2, i64 noundef 8) #14
  br label %_ZN7QStringD2Ev.exit24

_ZN7QStringD2Ev.exit24:                           ; preds = %_ZN7QStringD2Ev.exit, %_ZN9QtPrivate8RefCount5derefEv.exit.i20, %_ZN9QtPrivate8RefCount5derefEv.exit.thread2.i19
  %24 = call noundef ptr @_ZN7QString16fromAscii_helperEPKci(ptr noundef nonnull @.str.5, i32 noundef 1)
  store ptr %24, ptr %5, align 8
  %25 = call noundef i32 @_ZNK6QColor5greenEv(ptr noundef nonnull align 4 dereferenceable(14) %12) #14
  invoke void @_ZN7QString6numberEii(ptr dead_on_unwind nonnull writable sret(%class.QString) align 8 %6, i32 noundef %25, i32 noundef 10)
          to label %26 unwind label %64

26:                                               ; preds = %_ZN7QStringD2Ev.exit24
  invoke void @_ZN11QDomElement12setAttributeERK7QStringS2_(ptr noundef nonnull align 8 dereferenceable(8) %1, ptr noundef nonnull align 8 dereferenceable(8) %5, ptr noundef nonnull align 8 dereferenceable(8) %6)
          to label %27 unwind label %66

27:                                               ; preds = %26
  %28 = load ptr, ptr %6, align 8
  %29 = load atomic i32, ptr %28 monotonic, align 4
  switch i32 %29, label %_ZN9QtPrivate8RefCount5derefEv.exit.i26 [
    i32 0, label %_ZN9QtPrivate8RefCount5derefEv.exit.thread2.i25
    i32 -1, label %_ZN7QStringD2Ev.exit30
  ]

_ZN9QtPrivate8RefCount5derefEv.exit.i26:          ; preds = %27
  %30 = atomicrmw sub ptr %28, i32 1 seq_cst, align 4
  %.not.i27 = icmp eq i32 %30, 1
  br i1 %.not.i27, label %_ZN9QtPrivate8RefCount5derefEv.exit._ZN9QtPrivate8RefCount5derefEv.exit.thread2_crit_edge.i28, label %_ZN7QStringD2Ev.exit30

_ZN9QtPrivate8RefCount5derefEv.exit._ZN9QtPrivate8RefCount5derefEv.exit.thread2_crit_edge.i28: ; preds = %_ZN9QtPrivate8RefCount5derefEv.exit.i26
  %.pre.i29 = load ptr, ptr %6, align 8
  br label %_ZN9QtPrivate8RefCount5derefEv.exit.thread2.i25

_ZN9QtPrivate8RefCount5derefEv.exit.thread2.i25:  ; preds = %_ZN9QtPrivate8RefCount5derefEv.exit._ZN9QtPrivate8RefCount5derefEv.exit.thread2_crit_edge.i28, %27
  %31 = phi ptr [ %.pre.i29, %_ZN9QtPrivate8RefCount5derefEv.exit._ZN9QtPrivate8RefCount5derefEv.exit.thread2_crit_edge.i28 ], [ %28, %27 ]
  call void @_ZN10QArrayData10deallocateEPS_mm(ptr noundef %31, i64 noundef 2, i64 noundef 8) #14
  br label %_ZN7QStringD2Ev.exit30

_ZN7QStringD2Ev.exit30:                           ; preds = %27, %_ZN9QtPrivate8RefCount5derefEv.exit.i26, %_ZN9QtPrivate8RefCount5derefEv.exit.thread2.i25
  %32 = load ptr, ptr %5, align 8
  %33 = load atomic i32, ptr %32 monotonic, align 4
  switch i32 %33, label %_ZN9QtPrivate8RefCount5derefEv.exit.i32 [
    i32 0, label %_ZN9QtPrivate8RefCount5derefEv.exit.thread2.i31
    i32 -1, label %_ZN7QStringD2Ev.exit36
  ]

_ZN9QtPrivate8RefCount5derefEv.exit.i32:          ; preds = %_ZN7QStringD2Ev.exit30
  %34 = atomicrmw sub ptr %32, i32 1 seq_cst, align 4
  %.not.i33 = icmp eq i32 %34, 1
  br i1 %.not.i33, label %_ZN9QtPrivate8RefCount5derefEv.exit._ZN9QtPrivate8RefCount5derefEv.exit.thread2_crit_edge.i34, label %_ZN7QStringD2Ev.exit36

_ZN9QtPrivate8RefCount5derefEv.exit._ZN9QtPrivate8RefCount5derefEv.exit.thread2_crit_edge.i34: ; preds = %_ZN9QtPrivate8RefCount5derefEv.exit.i32
  %.pre.i35 = load ptr, ptr %5, align 8
  br label %_ZN9QtPrivate8RefCount5derefEv.exit.thread2.i31

_ZN9QtPrivate8RefCount5derefEv.exit.thread2.i31:  ; preds = %_ZN9QtPrivate8RefCount5derefEv.exit._ZN9QtPrivate8RefCount5derefEv.exit.thread2_crit_edge.i34, %_ZN7QStringD2Ev.exit30
  %35 = phi ptr [ %.pre.i35, %_ZN9QtPrivate8RefCount5derefEv.exit._ZN9QtPrivate8RefCount5derefEv.exit.thread2_crit_edge.i34 ], [ %32, %_ZN7QStringD2Ev.exit30 ]
  call void @_ZN10QArrayData10deallocateEPS_mm(ptr noundef %35, i64 noundef 2, i64 noundef 8) #14
  br label %_ZN7QStringD2Ev.exit36

_ZN7QStringD2Ev.exit36:                           ; preds = %_ZN7QStringD2Ev.exit30, %_ZN9QtPrivate8RefCount5derefEv.exit.i32, %_ZN9QtPrivate8RefCount5derefEv.exit.thread2.i31
  %36 = call noundef ptr @_ZN7QString16fromAscii_helperEPKci(ptr noundef nonnull @.str.6, i32 noundef 1)
  store ptr %36, ptr %7, align 8
  %37 = call noundef i32 @_ZNK6QColor4blueEv(ptr noundef nonnull align 4 dereferenceable(14) %12) #14
  invoke void @_ZN7QString6numberEii(ptr dead_on_unwind nonnull writable sret(%class.QString) align 8 %8, i32 noundef %37, i32 noundef 10)
          to label %38 unwind label %68

38:                                               ; preds = %_ZN7QStringD2Ev.exit36
  invoke void @_ZN11QDomElement12setAttributeERK7QStringS2_(ptr noundef nonnull align 8 dereferenceable(8) %1, ptr noundef nonnull align 8 dereferenceable(8) %7, ptr noundef nonnull align 8 dereferenceable(8) %8)
          to label %39 unwind label %70

39:                                               ; preds = %38
  %40 = load ptr, ptr %8, align 8
  %41 = load atomic i32, ptr %40 monotonic, align 4
  switch i32 %41, label %_ZN9QtPrivate8RefCount5derefEv.exit.i38 [
    i32 0, label %_ZN9QtPrivate8RefCount5derefEv.exit.thread2.i37
    i32 -1, label %_ZN7QStringD2Ev.exit42
  ]

_ZN9QtPrivate8RefCount5derefEv.exit.i38:          ; preds = %39
  %42 = atomicrmw sub ptr %40, i32 1 seq_cst, align 4
  %.not.i39 = icmp eq i32 %42, 1
  br i1 %.not.i39, label %_ZN9QtPrivate8RefCount5derefEv.exit._ZN9QtPrivate8RefCount5derefEv.exit.thread2_crit_edge.i40, label %_ZN7QStringD2Ev.exit42

_ZN9QtPrivate8RefCount5derefEv.exit._ZN9QtPrivate8RefCount5derefEv.exit.thread2_crit_edge.i40: ; preds = %_ZN9QtPrivate8RefCount5derefEv.exit.i38
  %.pre.i41 = load ptr, ptr %8, align 8
  br label %_ZN9QtPrivate8RefCount5derefEv.exit.thread2.i37

_ZN9QtPrivate8RefCount5derefEv.exit.thread2.i37:  ; preds = %_ZN9QtPrivate8RefCount5derefEv.exit._ZN9QtPrivate8RefCount5derefEv.exit.thread2_crit_edge.i40, %39
  %43 = phi ptr [ %.pre.i41, %_ZN9QtPrivate8RefCount5derefEv.exit._ZN9QtPrivate8RefCount5derefEv.exit.thread2_crit_edge.i40 ], [ %40, %39 ]
  call void @_ZN10QArrayData10deallocateEPS_mm(ptr noundef %43, i64 noundef 2, i64 noundef 8) #14
  br label %_ZN7QStringD2Ev.exit42

_ZN7QStringD2Ev.exit42:                           ; preds = %39, %_ZN9QtPrivate8RefCount5derefEv.exit.i38, %_ZN9QtPrivate8RefCount5derefEv.exit.thread2.i37
  %44 = load ptr, ptr %7, align 8
  %45 = load atomic i32, ptr %44 monotonic, align 4
  switch i32 %45, label %_ZN9QtPrivate8RefCount5derefEv.exit.i44 [
    i32 0, label %_ZN9QtPrivate8RefCount5derefEv.exit.thread2.i43
    i32 -1, label %_ZN7QStringD2Ev.exit48
  ]

_ZN9QtPrivate8RefCount5derefEv.exit.i44:          ; preds = %_ZN7QStringD2Ev.exit42
  %46 = atomicrmw sub ptr %44, i32 1 seq_cst, align 4
  %.not.i45 = icmp eq i32 %46, 1
  br i1 %.not.i45, label %_ZN9QtPrivate8RefCount5derefEv.exit._ZN9QtPrivate8RefCount5derefEv.exit.thread2_crit_edge.i46, label %_ZN7QStringD2Ev.exit48

_ZN9QtPrivate8RefCount5derefEv.exit._ZN9QtPrivate8RefCount5derefEv.exit.thread2_crit_edge.i46: ; preds = %_ZN9QtPrivate8RefCount5derefEv.exit.i44
  %.pre.i47 = load ptr, ptr %7, align 8
  br label %_ZN9QtPrivate8RefCount5derefEv.exit.thread2.i43

_ZN9QtPrivate8RefCount5derefEv.exit.thread2.i43:  ; preds = %_ZN9QtPrivate8RefCount5derefEv.exit._ZN9QtPrivate8RefCount5derefEv.exit.thread2_crit_edge.i46, %_ZN7QStringD2Ev.exit42
  %47 = phi ptr [ %.pre.i47, %_ZN9QtPrivate8RefCount5derefEv.exit._ZN9QtPrivate8RefCount5derefEv.exit.thread2_crit_edge.i46 ], [ %44, %_ZN7QStringD2Ev.exit42 ]
  call void @_ZN10QArrayData10deallocateEPS_mm(ptr noundef %47, i64 noundef 2, i64 noundef 8) #14
  br label %_ZN7QStringD2Ev.exit48

_ZN7QStringD2Ev.exit48:                           ; preds = %_ZN7QStringD2Ev.exit42, %_ZN9QtPrivate8RefCount5derefEv.exit.i44, %_ZN9QtPrivate8RefCount5derefEv.exit.thread2.i43
  %48 = call noundef ptr @_ZN7QString16fromAscii_helperEPKci(ptr noundef nonnull @.str.7, i32 noundef 1)
  store ptr %48, ptr %9, align 8
  %49 = call noundef i32 @_ZNK6QColor5alphaEv(ptr noundef nonnull align 4 dereferenceable(14) %12) #14
  invoke void @_ZN7QString6numberEii(ptr dead_on_unwind nonnull writable sret(%class.QString) align 8 %10, i32 noundef %49, i32 noundef 10)
          to label %50 unwind label %72

50:                                               ; preds = %_ZN7QStringD2Ev.exit48
  invoke void @_ZN11QDomElement12setAttributeERK7QStringS2_(ptr noundef nonnull align 8 dereferenceable(8) %1, ptr noundef nonnull align 8 dereferenceable(8) %9, ptr noundef nonnull align 8 dereferenceable(8) %10)
          to label %51 unwind label %74

51:                                               ; preds = %50
  %52 = load ptr, ptr %10, align 8
  %53 = load atomic i32, ptr %52 monotonic, align 4
  switch i32 %53, label %_ZN9QtPrivate8RefCount5derefEv.exit.i50 [
    i32 0, label %_ZN9QtPrivate8RefCount5derefEv.exit.thread2.i49
    i32 -1, label %_ZN7QStringD2Ev.exit54
  ]

_ZN9QtPrivate8RefCount5derefEv.exit.i50:          ; preds = %51
  %54 = atomicrmw sub ptr %52, i32 1 seq_cst, align 4
  %.not.i51 = icmp eq i32 %54, 1
  br i1 %.not.i51, label %_ZN9QtPrivate8RefCount5derefEv.exit._ZN9QtPrivate8RefCount5derefEv.exit.thread2_crit_edge.i52, label %_ZN7QStringD2Ev.exit54

_ZN9QtPrivate8RefCount5derefEv.exit._ZN9QtPrivate8RefCount5derefEv.exit.thread2_crit_edge.i52: ; preds = %_ZN9QtPrivate8RefCount5derefEv.exit.i50
  %.pre.i53 = load ptr, ptr %10, align 8
  br label %_ZN9QtPrivate8RefCount5derefEv.exit.thread2.i49

_ZN9QtPrivate8RefCount5derefEv.exit.thread2.i49:  ; preds = %_ZN9QtPrivate8RefCount5derefEv.exit._ZN9QtPrivate8RefCount5derefEv.exit.thread2_crit_edge.i52, %51
  %55 = phi ptr [ %.pre.i53, %_ZN9QtPrivate8RefCount5derefEv.exit._ZN9QtPrivate8RefCount5derefEv.exit.thread2_crit_edge.i52 ], [ %52, %51 ]
  call void @_ZN10QArrayData10deallocateEPS_mm(ptr noundef %55, i64 noundef 2, i64 noundef 8) #14
  br label %_ZN7QStringD2Ev.exit54

_ZN7QStringD2Ev.exit54:                           ; preds = %51, %_ZN9QtPrivate8RefCount5derefEv.exit.i50, %_ZN9QtPrivate8RefCount5derefEv.exit.thread2.i49
  %56 = load ptr, ptr %9, align 8
  %57 = load atomic i32, ptr %56 monotonic, align 4
  switch i32 %57, label %_ZN9QtPrivate8RefCount5derefEv.exit.i56 [
    i32 0, label %_ZN9QtPrivate8RefCount5derefEv.exit.thread2.i55
    i32 -1, label %_ZN7QStringD2Ev.exit60
  ]

_ZN9QtPrivate8RefCount5derefEv.exit.i56:          ; preds = %_ZN7QStringD2Ev.exit54
  %58 = atomicrmw sub ptr %56, i32 1 seq_cst, align 4
  %.not.i57 = icmp eq i32 %58, 1
  br i1 %.not.i57, label %_ZN9QtPrivate8RefCount5derefEv.exit._ZN9QtPrivate8RefCount5derefEv.exit.thread2_crit_edge.i58, label %_ZN7QStringD2Ev.exit60

_ZN9QtPrivate8RefCount5derefEv.exit._ZN9QtPrivate8RefCount5derefEv.exit.thread2_crit_edge.i58: ; preds = %_ZN9QtPrivate8RefCount5derefEv.exit.i56
  %.pre.i59 = load ptr, ptr %9, align 8
  br label %_ZN9QtPrivate8RefCount5derefEv.exit.thread2.i55

_ZN9QtPrivate8RefCount5derefEv.exit.thread2.i55:  ; preds = %_ZN9QtPrivate8RefCount5derefEv.exit._ZN9QtPrivate8RefCount5derefEv.exit.thread2_crit_edge.i58, %_ZN7QStringD2Ev.exit54
  %59 = phi ptr [ %.pre.i59, %_ZN9QtPrivate8RefCount5derefEv.exit._ZN9QtPrivate8RefCount5derefEv.exit.thread2_crit_edge.i58 ], [ %56, %_ZN7QStringD2Ev.exit54 ]
  call void @_ZN10QArrayData10deallocateEPS_mm(ptr noundef %59, i64 noundef 2, i64 noundef 8) #14
  br label %_ZN7QStringD2Ev.exit60

_ZN7QStringD2Ev.exit60:                           ; preds = %_ZN7QStringD2Ev.exit54, %_ZN9QtPrivate8RefCount5derefEv.exit.i56, %_ZN9QtPrivate8RefCount5derefEv.exit.thread2.i55
  ret void

60:                                               ; preds = %2
  %61 = landingpad { ptr, i32 }
          cleanup
  br label %76

62:                                               ; preds = %14
  %63 = landingpad { ptr, i32 }
          cleanup
  call void @_ZN7QStringD2Ev(ptr noundef nonnull align 8 dereferenceable(8) %4) #14
  br label %76

64:                                               ; preds = %_ZN7QStringD2Ev.exit24
  %65 = landingpad { ptr, i32 }
          cleanup
  br label %76

66:                                               ; preds = %26
  %67 = landingpad { ptr, i32 }
          cleanup
  call void @_ZN7QStringD2Ev(ptr noundef nonnull align 8 dereferenceable(8) %6) #14
  br label %76

68:                                               ; preds = %_ZN7QStringD2Ev.exit36
  %69 = landingpad { ptr, i32 }
          cleanup
  br label %76

70:                                               ; preds = %38
  %71 = landingpad { ptr, i32 }
          cleanup
  call void @_ZN7QStringD2Ev(ptr noundef nonnull align 8 dereferenceable(8) %8) #14
  br label %76

72:                                               ; preds = %_ZN7QStringD2Ev.exit48
  %73 = landingpad { ptr, i32 }
          cleanup
  br label %76

74:                                               ; preds = %50
  %75 = landingpad { ptr, i32 }
          cleanup
  call void @_ZN7QStringD2Ev(ptr noundef nonnull align 8 dereferenceable(8) %10) #14
  br label %76

76:                                               ; preds = %72, %74, %68, %70, %64, %66, %60, %62
  %.sink = phi ptr [ %3, %62 ], [ %3, %60 ], [ %5, %66 ], [ %5, %64 ], [ %7, %70 ], [ %7, %68 ], [ %9, %74 ], [ %9, %72 ]
  %.pn16.pn = phi { ptr, i32 } [ %63, %62 ], [ %61, %60 ], [ %67, %66 ], [ %65, %64 ], [ %71, %70 ], [ %69, %68 ], [ %75, %74 ], [ %73, %72 ]
  call void @_ZN7QStringD2Ev(ptr noundef nonnull align 8 dereferenceable(8) %.sink) #14
  resume { ptr, i32 } %.pn16.pn
}